; Function Attrs: mustprogress uwtable
define void @_ZN4LIEF5MachO16SegmentSplitInfoC2ERKNS0_7details21linkedit_data_commandE(ptr noundef nonnull align 8 dereferenceable(80) %0, ptr nocapture noundef nonnull readonly align 4 dereferenceable(16) %1) unnamed_addr #0 align 2 {
  %3 = load i32, ptr %1, align 4
  %4 = zext i32 %3 to i64
  %5 = getelementptr inbounds i8, ptr %1, i64 4
  %6 = load i32, ptr %5, align 4
  tail call void @_ZN4LIEF5MachO11LoadCommandC2ENS0_18LOAD_COMMAND_TYPESEj(ptr noundef nonnull align 8 dereferenceable(56) %0, i64 noundef %4, i32 noundef %6)
  store ptr getelementptr inbounds ({ [9 x ptr] }, ptr @_ZTVN4LIEF5MachO16SegmentSplitInfoE, i64 0, i32 0, i64 2), ptr %0, align 8
  %7 = getelementptr inbounds i8, ptr %0, i64 56
  %8 = getelementptr inbounds i8, ptr %1, i64 8
  %9 = load i32, ptr %8, align 4
  store i32 %9, ptr %7, align 8
  %10 = getelementptr inbounds i8, ptr %0, i64 60
  %11 = getelementptr inbounds i8, ptr %1, i64 12
  %12 = load i32, ptr %11, align 4
  store i32 %12, ptr %10, align 4
  %13 = getelementptr inbounds i8, ptr %0, i64 64
  tail call void @llvm.memset.p0.i64(ptr noundef nonnull align 8 dereferenceable(16) %13, i8 0, i64 16, i1 false)
  ret void
}